target datalayout = "e-m:e-p270:32:32-p271:32:32-p272:64:64-i64:64-i128:128-f80:128-n8:16:32:64-S128"
target triple = "x86_64-pc-linux-gnu"

%class.G1RebuildRSAndScrubTask = type <{ %class.WorkerTask.base, [4 x i8], ptr, %class.G1HeapRegionClaimer, i8, [7 x i8] }>
%class.WorkerTask.base = type <{ ptr, ptr, i32 }>
%class.G1HeapRegionClaimer = type { i32, i32, ptr }
%class.WorkerThreads = type { ptr, ptr, ptr, i32, i32, i32, %class.WorkerTaskDispatcher }
%class.WorkerTaskDispatcher = type { ptr, i32, i32, %class.Semaphore, %class.Semaphore }
%class.Semaphore = type { %class.PosixSemaphore }
%class.PosixSemaphore = type { %union.sem_t }
%union.sem_t = type { i64, [24 x i8] }
%class.WorkerTask = type <{ ptr, ptr, i32, [4 x i8] }>

@.str = private unnamed_addr constant [19 x i8] c"Scrub dead objects\00", align 1
@_ZTV23G1RebuildRSAndScrubTask = linkonce_odr hidden unnamed_addr constant { [3 x ptr] } { [3 x ptr] [ptr null, ptr null, ptr @_ZN23G1RebuildRSAndScrubTask4workEj] }, comdat, align 8
@_ZTV10WorkerTask = linkonce_odr hidden unnamed_addr constant { [3 x ptr] } { [3 x ptr] [ptr null, ptr null, ptr @__cxa_pure_virtual] }, comdat, align 8

; Function Attrs: mustprogress nounwind uwtable
define linkonce_odr hidden void @_ZN10WorkerTaskC2EPKc(ptr noundef nonnull align 8 dereferenceable(20) %0, ptr noundef %1) unnamed_addr #1 comdat align 2 {
  %3 = alloca ptr, align 8
  %4 = alloca ptr, align 8
  store ptr %0, ptr %3, align 8
  store ptr %1, ptr %4, align 8
  %5 = load ptr, ptr %3, align 8
  store ptr getelementptr inbounds inrange(-16, 8) ({ [3 x ptr] }, ptr @_ZTV10WorkerTask, i32 0, i32 0, i32 2), ptr %5, align 8
  %6 = getelementptr inbounds %class.WorkerTask, ptr %5, i32 0, i32 1
  %7 = load ptr, ptr %4, align 8
  store ptr %7, ptr %6, align 8
  %8 = getelementptr inbounds %class.WorkerTask, ptr %5, i32 0, i32 2
  %9 = call noundef i32 @_ZN4GCId20current_or_undefinedEv()
  store i32 %9, ptr %8, align 8
  ret void
}

; Function Attrs: mustprogress nounwind uwtable
define linkonce_odr hidden void @_ZN23G1RebuildRSAndScrubTaskD2Ev(ptr noundef nonnull align 8 dereferenceable(49) %0) unnamed_addr #1 comdat align 2 {
  %2 = alloca ptr, align 8
  store ptr %0, ptr %2, align 8
  %3 = load ptr, ptr %2, align 8
  store ptr getelementptr inbounds inrange(-16, 8) ({ [3 x ptr] }, ptr @_ZTV23G1RebuildRSAndScrubTask, i32 0, i32 0, i32 2), ptr %3, align 8
  %4 = getelementptr inbounds %class.G1RebuildRSAndScrubTask, ptr %3, i32 0, i32 3
  call void @_ZN19G1HeapRegionClaimerD1Ev(ptr noundef nonnull align 8 dereferenceable(16) %4) #10
  ret void
}

; Function Attrs: mustprogress nounwind uwtable
define linkonce_odr hidden void @_ZN23G1RebuildRSAndScrubTaskC2EP16G1ConcurrentMarkbj(ptr noundef nonnull align 8 dereferenceable(49) %0, ptr noundef %1, i1 noundef zeroext %2, i32 noundef %3) unnamed_addr #1 comdat align 2 {
  %5 = alloca ptr, align 8
  %6 = alloca ptr, align 8
  %7 = alloca i8, align 1
  %8 = alloca i32, align 4
  store ptr %0, ptr %5, align 8
  store ptr %1, ptr %6, align 8
  %9 = zext i1 %2 to i8
  store i8 %9, ptr %7, align 1
  store i32 %3, ptr %8, align 4
  %10 = load ptr, ptr %5, align 8
  call void @_ZN10WorkerTaskC2EPKc(ptr noundef nonnull align 8 dereferenceable(20) %10, ptr noundef @.str)
  store ptr getelementptr inbounds inrange(-16, 8) ({ [3 x ptr] }, ptr @_ZTV23G1RebuildRSAndScrubTask, i32 0, i32 0, i32 2), ptr %10, align 8
  %11 = getelementptr inbounds %class.G1RebuildRSAndScrubTask, ptr %10, i32 0, i32 2
  %12 = load ptr, ptr %6, align 8
  store ptr %12, ptr %11, align 8
  %13 = getelementptr inbounds %class.G1RebuildRSAndScrubTask, ptr %10, i32 0, i32 3
  %14 = load i32, ptr %8, align 4
  call void @_ZN19G1HeapRegionClaimerC1Ej(ptr noundef nonnull align 8 dereferenceable(16) %13, i32 noundef %14)
  %15 = getelementptr inbounds %class.G1RebuildRSAndScrubTask, ptr %10, i32 0, i32 4
  %16 = load i8, ptr %7, align 1
  %17 = trunc i8 %16 to i1
  %18 = zext i1 %17 to i8
  store i8 %18, ptr %15, align 8
  ret void
}

; Function Attrs: mustprogress nounwind uwtable
define linkonce_odr hidden noundef i32 @_ZNK13WorkerThreads14active_workersEv(ptr noundef nonnull align 8 dereferenceable(120) %0) #1 comdat align 2 {
  %2 = alloca ptr, align 8
  store ptr %0, ptr %2, align 8
  %3 = load ptr, ptr %2, align 8
  %4 = getelementptr inbounds %class.WorkerThreads, ptr %3, i32 0, i32 5
  %5 = load i32, ptr %4, align 8
  ret i32 %5
}

; Function Attrs: mustprogress nounwind uwtable
define hidden void @_ZN27G1ConcurrentRebuildAndScrub17rebuild_and_scrubEP16G1ConcurrentMarkbP13WorkerThreads(ptr noundef %0, i1 noundef zeroext %1, ptr noundef %2) #1 align 2 {
  %4 = alloca ptr, align 8
  %5 = alloca i8, align 1
  %6 = alloca ptr, align 8
  %7 = alloca i32, align 4
  %8 = alloca %class.G1RebuildRSAndScrubTask, align 8
  store ptr %0, ptr %4, align 8
  %9 = zext i1 %1 to i8
  store i8 %9, ptr %5, align 1
  store ptr %2, ptr %6, align 8
  %10 = load ptr, ptr %6, align 8
  %11 = call noundef i32 @_ZNK13WorkerThreads14active_workersEv(ptr noundef nonnull align 8 dereferenceable(120) %10)
  store i32 %11, ptr %7, align 4
  %12 = load ptr, ptr %4, align 8
  %13 = load i8, ptr %5, align 1
  %14 = trunc i8 %13 to i1
  %15 = load i32, ptr %7, align 4
  call void @_ZN23G1RebuildRSAndScrubTaskC2EP16G1ConcurrentMarkbj(ptr noundef nonnull align 8 dereferenceable(49) %8, ptr noundef %12, i1 noundef zeroext %14, i32 noundef %15)
  %16 = load ptr, ptr %6, align 8
  %17 = load i32, ptr %7, align 4
  call void @_ZN13WorkerThreads8run_taskEP10WorkerTaskj(ptr noundef nonnull align 8 dereferenceable(120) %16, ptr noundef %8, i32 noundef %17)
  call void @_ZN23G1RebuildRSAndScrubTaskD2Ev(ptr noundef nonnull align 8 dereferenceable(49) %8) #10
  ret void
}