; Function Attrs: mustprogress nounwind uwtable
define hidden void @_ZN27G1ConcurrentRebuildAndScrub17rebuild_and_scrubEP16G1ConcurrentMarkbP13WorkerThreads(ptr noundef %0, i1 noundef zeroext %1, ptr noundef %2) local_unnamed_addr #0 align 2 {
  %4 = alloca %class.G1RebuildRSAndScrubTask, align 8
  %5 = getelementptr inbounds i8, ptr %2, i64 32
  %6 = load i32, ptr %5, align 8
  %7 = zext i1 %1 to i8
  %8 = getelementptr inbounds i8, ptr %4, i64 8
  store ptr @.str, ptr %8, align 8
  %9 = getelementptr inbounds i8, ptr %4, i64 16
  %10 = tail call noundef i32 @_ZN4GCId20current_or_undefinedEv() #10
  store i32 %10, ptr %9, align 8
  store ptr getelementptr inbounds inrange(-16, 8) (i8, ptr @_ZTV23G1RebuildRSAndScrubTask, i64 16), ptr %4, align 8
  %11 = getelementptr inbounds i8, ptr %4, i64 24
  store ptr %0, ptr %11, align 8
  %12 = getelementptr inbounds i8, ptr %4, i64 32
  call void @_ZN19G1HeapRegionClaimerC1Ej(ptr noundef nonnull align 8 dereferenceable(16) %12, i32 noundef %6) #10
  %13 = getelementptr inbounds i8, ptr %4, i64 48
  store i8 %7, ptr %13, align 8
  call void @_ZN13WorkerThreads8run_taskEP10WorkerTaskj(ptr noundef nonnull align 8 dereferenceable(120) %2, ptr noundef nonnull %4, i32 noundef %6) #10
  store ptr getelementptr inbounds inrange(-16, 8) (i8, ptr @_ZTV23G1RebuildRSAndScrubTask, i64 16), ptr %4, align 8
  call void @_ZN19G1HeapRegionClaimerD1Ev(ptr noundef nonnull align 8 dereferenceable(16) %12) #10
  ret void
}